(lp1
(lp2
(lp3
cnumpy.core.multiarray
scalar
p4
(cnumpy
dtype
p5
(S'f4'
I0
I1
tRp6
(I3
S'<'
NNNI-1
I-1
I0
tbS'\xf6%\\D'
tRp7
ag4
(g6
S'\xca\xdd%D'
tRp8
aa(lp9
g4
(g6
S'>\xa2vD'
tRp10
ag4
(g6
S'!\xf8$D'
tRp11
aa(lp12
g4
(g6
S'\x02\xcdwD'
tRp13
ag4
(g6
S'M\x1a.D'
tRp14
aa(lp15
g4
(g6
S'<\xcc[D'
tRp16
ag4
(g6
S'\n /D'
tRp17
aaa(I5
I3
tp18
a.