(lp1
(lp2
(lp3
cnumpy.core.multiarray
scalar
p4
(cnumpy
dtype
p5
(S'f4'
I0
I1
tRp6
(I3
S'<'
NNNI-1
I-1
I0
tbS'EAaD'
tRp7
ag4
(g6
S'|\x9eMD'
tRp8
aa(lp9
g4
(g6
S'\xbb.\x80D'
tRp10
ag4
(g6
S'\xb7\xd7LD'
tRp11
aa(lp12
g4
(g6
S'\xd3>\x81D'
tRp13
ag4
(g6
S'Q\xa6XD'
tRp14
aa(lp15
g4
(g6
S'J!`D'
tRp16
ag4
(g6
S'\x93\x8eYD'
tRp17
aaa(lp18
I7
aI5
aa.