(lp1
(lp2
(lp3
cnumpy.core.multiarray
scalar
p4
(cnumpy
dtype
p5
(S'f4'
I0
I1
tRp6
(I3
S'<'
NNNI-1
I-1
I0
tbS'\xc8\x04\x17D'
tRp7
ag4
(g6
S't-jD'
tRp8
aa(lp9
g4
(g6
S'\x00\x00,D'
tRp10
ag4
(g6
S'\x00\x00aD'
tRp11
aa(lp12
g4
(g6
S'\x00\x807D'
tRp13
ag4
(g6
S'\x00\xc0qD'
tRp14
aa(lp15
g4
(g6
S'\xd2\xe9\x1fD'
tRp16
ag4
(g6
S'\xce\x9e{D'
tRp17
aaa(lp18
I4
aI3
aa.