(lp1
(lp2
(lp3
cnumpy.core.multiarray
scalar
p4
(cnumpy
dtype
p5
(S'f4'
I0
I1
tRp6
(I3
S'<'
NNNI-1
I-1
I0
tbS'\xb6dhD'
tRp7
ag4
(g6
S'\xeap,D'
tRp8
aa(lp9
g4
(g6
S'\xdfe\x83D'
tRp10
ag4
(g6
S'\xe1\xdb+D'
tRp11
aa(lp12
g4
(g6
S'K\x0e\x84D'
tRp13
ag4
(g6
S'\xddH7D'
tRp14
aa(lp15
g4
(g6
S'\xd1\xd2gD'
tRp16
ag4
(g6
S'\xd8\xd27D'
tRp17
aaa(lp18
I5
aI3
aa.