cnumpy.core.multiarray
_reconstruct
p1
(cnumpy
ndarray
p2
(I0
tS'b'
tRp3
(I1
(I5
I1
tcnumpy
dtype
p4
(S'f4'
I0
I1
tRp5
(I3
S'<'
NNNI-1
I-1
I0
tbI00
S'\x00;\x8e\xbe\xf5X\x01>\x970):fL\t\xb8\xbeS\x11\xbd'
tb.