(lp1
(lp2
(lp3
cnumpy.core.multiarray
scalar
p4
(cnumpy
dtype
p5
(S'f4'
I0
I1
tRp6
(I3
S'<'
NNNI-1
I-1
I0
tbS'9\xb5`D'
tRp7
ag4
(g6
S'\x1f\x9dJD'
tRp8
aa(lp9
g4
(g6
S'\x11\x92}D'
tRp10
ag4
(g6
S'\xb9=JD'
tRp11
aa(lp12
g4
(g6
S'\xb4\xbf~D'
tRp13
ag4
(g6
S'\x8b.TD'
tRp14
aa(lp15
g4
(g6
S'\xd8\x15_D'
tRp16
ag4
(g6
S'R\x90TD'
tRp17
aaa(lp18
I7
aI5
aa.