(lp1
(lp2
(lp3
cnumpy.core.multiarray
scalar
p4
(cnumpy
dtype
p5
(S'f4'
I0
I1
tRp6
(I3
S'<'
NNNI-1
I-1
I0
tbS'%\xe6XD'
tRp7
ag4
(g6
S'\xef\xafDD'
tRp8
aa(lp9
g4
(g6
S'\x0e\xf5sD'
tRp10
ag4
(g6
S'\x8e\x1cDD'
tRp11
aa(lp12
g4
(g6
S'\x19MuD'
tRp13
ag4
(g6
S'\x9a\xc2MD'
tRp14
aa(lp15
g4
(g6
S'\xb7\x8eXD'
tRp16
ag4
(g6
S'_tND'
tRp17
aaa(I5
I3
tp18
a.