(lp1
(lp2
(lp3
cnumpy.core.multiarray
scalar
p4
(cnumpy
dtype
p5
(S'f4'
I0
I1
tRp6
(I3
S'<'
NNNI-1
I-1
I0
tbS'/\x7fZD'
tRp7
ag4
(g6
S'\xfa\x92"D'
tRp8
aa(lp9
g4
(g6
S'\xfdbmD'
tRp10
ag4
(g6
S'\xaf\xb5"D'
tRp11
aa(lp12
g4
(g6
S'\xf9!nD'
tRp13
ag4
(g6
S"\xbe}'D"
tRp14
aa(lp15
g4
(g6
S'\xfbeZD'
tRp16
ag4
(g6
S"JX'D"
tRp17
aaa(I5
I3
tp18
a.