(lp1
(lp2
(lp3
cnumpy.core.multiarray
scalar
p4
(cnumpy
dtype
p5
(S'f4'
I0
I1
tRp6
(I3
S'<'
NNNI-1
I-1
I0
tbS'7VaD'
tRp7
ag4
(g6
S'\x98>\x07D'
tRp8
aa(lp9
g4
(g6
S'\x81\x03}D'
tRp10
ag4
(g6
S'-\xf4\x06D'
tRp11
aa(lp12
g4
(g6
S'B\xfe~D'
tRp13
ag4
(g6
S'\xae\xe4\x0fD'
tRp14
aa(lp15
g4
(g6
S'\xef\xe6`D'
tRp16
ag4
(g6
S'\xc8X\x10D'
tRp17
aaa(lp18
I7
aI5
aa.